target datalayout = "e-m:e-p270:32:32-p271:32:32-p272:64:64-i64:64-i128:128-f80:128-n8:16:32:64-S128"
target triple = "x86_64-pc-linux-gnu"

%"class.std::__shared_count" = type { ptr }
%"class.dropbox::oxygen::nn" = type { %"class.std::shared_ptr" }
%"class.std::shared_ptr" = type { %"class.std::__shared_ptr" }
%"class.std::__shared_ptr" = type { ptr, %"class.std::__shared_count" }
%"struct.osgeo::proj::util::BaseObjectNNPtr" = type { %"class.dropbox::oxygen::nn" }
%"class.std::__cxx11::basic_string" = type { %"struct.std::__cxx11::basic_string<char>::_Alloc_hider", i64, %union.anon }
%"struct.std::__cxx11::basic_string<char>::_Alloc_hider" = type { ptr }
%union.anon = type { i64, [8 x i8] }
%"class.osgeo::proj::util::PropertyMap" = type { %"class.std::unique_ptr.26" }
%"class.std::unique_ptr.26" = type { %"struct.std::__uniq_ptr_data.27" }
%"struct.std::__uniq_ptr_data.27" = type { %"class.std::__uniq_ptr_impl.28" }
%"class.std::__uniq_ptr_impl.28" = type { %"class.std::tuple.29" }
%"class.std::tuple.29" = type { %"struct.std::_Tuple_impl.30" }
%"struct.std::_Tuple_impl.30" = type { %"struct.std::_Head_base.33" }
%"struct.std::_Head_base.33" = type { ptr }
%"struct.std::_List_iterator" = type { ptr }
%"struct.osgeo::proj::util::PropertyMap::Private" = type { %"class.std::__cxx11::list" }
%"class.std::__cxx11::list" = type { %"class.std::__cxx11::_List_base" }
%"class.std::__cxx11::_List_base" = type { %"struct.std::__cxx11::_List_base<std::pair<std::__cxx11::basic_string<char>, osgeo::proj::util::BaseObjectNNPtr>, std::allocator<std::pair<std::__cxx11::basic_string<char>, osgeo::proj::util::BaseObjectNNPtr>>>::_List_impl" }
%"struct.std::__cxx11::_List_base<std::pair<std::__cxx11::basic_string<char>, osgeo::proj::util::BaseObjectNNPtr>, std::allocator<std::pair<std::__cxx11::basic_string<char>, osgeo::proj::util::BaseObjectNNPtr>>>::_List_impl" = type { %"struct.std::__detail::_List_node_header" }
%"struct.std::__detail::_List_node_header" = type { %"struct.std::__detail::_List_node_base", i64 }
%"struct.std::__detail::_List_node_base" = type { ptr, ptr }
%"struct.std::pair" = type { %"class.std::__cxx11::basic_string", %"struct.osgeo::proj::util::BaseObjectNNPtr" }
%"struct.std::_List_node" = type { %"struct.std::__detail::_List_node_base", %"struct.__gnu_cxx::__aligned_membuf" }
%"struct.__gnu_cxx::__aligned_membuf" = type { [48 x i8] }

; Function Attrs: mustprogress nounwind uwtable
define linkonce_odr hidden noundef nonnull align 8 dereferenceable(8) ptr @_ZNSt10_Head_baseILm0EPN5osgeo4proj4util11PropertyMap7PrivateELb0EE7_M_headERKS6_(ptr noundef nonnull align 8 dereferenceable(8) %0) #1 comdat align 2 {
  %2 = alloca ptr, align 8
  store ptr %0, ptr %2, align 8
  %3 = load ptr, ptr %2, align 8
  %4 = getelementptr inbounds %"struct.std::_Head_base.33", ptr %3, i32 0, i32 0
  ret ptr %4
}

; Function Attrs: mustprogress nounwind uwtable
define linkonce_odr hidden noundef nonnull align 8 dereferenceable(8) ptr @_ZNSt11_Tuple_implILm0EJPN5osgeo4proj4util11PropertyMap7PrivateESt14default_deleteIS4_EEE7_M_headERKS8_(ptr noundef nonnull align 8 dereferenceable(8) %0) #1 comdat align 2 {
  %2 = alloca ptr, align 8
  store ptr %0, ptr %2, align 8
  %3 = load ptr, ptr %2, align 8
  %4 = call noundef nonnull align 8 dereferenceable(8) ptr @_ZNSt10_Head_baseILm0EPN5osgeo4proj4util11PropertyMap7PrivateELb0EE7_M_headERKS6_(ptr noundef nonnull align 8 dereferenceable(8) %3) #14
  ret ptr %4
}

; Function Attrs: mustprogress nounwind uwtable
define linkonce_odr hidden noundef nonnull align 8 dereferenceable(8) ptr @_ZSt12__get_helperILm0EPN5osgeo4proj4util11PropertyMap7PrivateEJSt14default_deleteIS4_EEERKT0_RKSt11_Tuple_implIXT_EJS8_DpT1_EE(ptr noundef nonnull align 8 dereferenceable(8) %0) #1 comdat {
  %2 = alloca ptr, align 8
  store ptr %0, ptr %2, align 8
  %3 = load ptr, ptr %2, align 8
  %4 = call noundef nonnull align 8 dereferenceable(8) ptr @_ZNSt11_Tuple_implILm0EJPN5osgeo4proj4util11PropertyMap7PrivateESt14default_deleteIS4_EEE7_M_headERKS8_(ptr noundef nonnull align 8 dereferenceable(8) %3) #14
  ret ptr %4
}

; Function Attrs: mustprogress nounwind uwtable
define linkonce_odr hidden noundef ptr @_ZN9__gnu_cxx16__aligned_membufISt4pairINSt7__cxx1112basic_stringIcSt11char_traitsIcESaIcEEEN5osgeo4proj4util15BaseObjectNNPtrEEE7_M_addrEv(ptr noundef nonnull align 8 dereferenceable(48) %0) #1 comdat align 2 {
  %2 = alloca ptr, align 8
  store ptr %0, ptr %2, align 8
  %3 = load ptr, ptr %2, align 8
  %4 = getelementptr inbounds %"struct.__gnu_cxx::__aligned_membuf", ptr %3, i32 0, i32 0
  ret ptr %4
}

; Function Attrs: mustprogress nounwind uwtable
define linkonce_odr hidden noundef nonnull align 8 dereferenceable(8) ptr @_ZSt3getILm0EJPN5osgeo4proj4util11PropertyMap7PrivateESt14default_deleteIS4_EEERKNSt13tuple_elementIXT_ESt5tupleIJDpT0_EEE4typeERKSC_(ptr noundef nonnull align 8 dereferenceable(8) %0) #1 comdat {
  %2 = alloca ptr, align 8
  store ptr %0, ptr %2, align 8
  %3 = load ptr, ptr %2, align 8
  %4 = call noundef nonnull align 8 dereferenceable(8) ptr @_ZSt12__get_helperILm0EPN5osgeo4proj4util11PropertyMap7PrivateEJSt14default_deleteIS4_EEERKT0_RKSt11_Tuple_implIXT_EJS8_DpT1_EE(ptr noundef nonnull align 8 dereferenceable(8) %3) #14
  ret ptr %4
}

; Function Attrs: mustprogress nounwind uwtable
define linkonce_odr hidden noundef ptr @_ZN9__gnu_cxx16__aligned_membufISt4pairINSt7__cxx1112basic_stringIcSt11char_traitsIcESaIcEEEN5osgeo4proj4util15BaseObjectNNPtrEEE6_M_ptrEv(ptr noundef nonnull align 8 dereferenceable(48) %0) #1 comdat align 2 {
  %2 = alloca ptr, align 8
  store ptr %0, ptr %2, align 8
  %3 = load ptr, ptr %2, align 8
  %4 = call noundef ptr @_ZN9__gnu_cxx16__aligned_membufISt4pairINSt7__cxx1112basic_stringIcSt11char_traitsIcESaIcEEEN5osgeo4proj4util15BaseObjectNNPtrEEE7_M_addrEv(ptr noundef nonnull align 8 dereferenceable(48) %3) #14
  ret ptr %4
}

; Function Attrs: mustprogress nounwind uwtable
define linkonce_odr hidden noundef ptr @_ZNKSt15__uniq_ptr_implIN5osgeo4proj4util11PropertyMap7PrivateESt14default_deleteIS4_EE6_M_ptrEv(ptr noundef nonnull align 8 dereferenceable(8) %0) #1 comdat align 2 {
  %2 = alloca ptr, align 8
  store ptr %0, ptr %2, align 8
  %3 = load ptr, ptr %2, align 8
  %4 = getelementptr inbounds %"class.std::__uniq_ptr_impl.28", ptr %3, i32 0, i32 0
  %5 = call noundef nonnull align 8 dereferenceable(8) ptr @_ZSt3getILm0EJPN5osgeo4proj4util11PropertyMap7PrivateESt14default_deleteIS4_EEERKNSt13tuple_elementIXT_ESt5tupleIJDpT0_EEE4typeERKSC_(ptr noundef nonnull align 8 dereferenceable(8) %4) #14
  %6 = load ptr, ptr %5, align 8
  ret ptr %6
}

; Function Attrs: noreturn nounwind uwtable
define linkonce_odr hidden void @__clang_call_terminate(ptr noundef %0) #8 comdat {
  %2 = call ptr @__cxa_begin_catch(ptr %0) #14
  call void @_ZSt9terminatev() #15
  unreachable
}

; Function Attrs: mustprogress nounwind uwtable
define linkonce_odr noundef i32 @_ZNSt11char_traitsIcE7compareEPKcS2_m(ptr noundef %0, ptr noundef %1, i64 noundef %2) #1 comdat align 2 {
  %4 = alloca i32, align 4
  %5 = alloca ptr, align 8
  %6 = alloca ptr, align 8
  %7 = alloca i64, align 8
  store ptr %0, ptr %5, align 8
  store ptr %1, ptr %6, align 8
  store i64 %2, ptr %7, align 8
  %8 = load i64, ptr %7, align 8
  %9 = icmp eq i64 %8, 0
  br i1 %9, label %10, label %11

10:                                               ; preds = %3
  store i32 0, ptr %4, align 4
  br label %16

11:                                               ; preds = %3
  %12 = load ptr, ptr %5, align 8
  %13 = load ptr, ptr %6, align 8
  %14 = load i64, ptr %7, align 8
  %15 = call i32 @memcmp(ptr noundef %12, ptr noundef %13, i64 noundef %14) #14
  store i32 %15, ptr %4, align 4
  br label %16

16:                                               ; preds = %11, %10
  %17 = load i32, ptr %4, align 4
  ret i32 %17
}

; Function Attrs: mustprogress nounwind uwtable
define linkonce_odr hidden noundef ptr @_ZNSt10_List_nodeISt4pairINSt7__cxx1112basic_stringIcSt11char_traitsIcESaIcEEEN5osgeo4proj4util15BaseObjectNNPtrEEE9_M_valptrEv(ptr noundef nonnull align 8 dereferenceable(64) %0) #1 comdat align 2 {
  %2 = alloca ptr, align 8
  store ptr %0, ptr %2, align 8
  %3 = load ptr, ptr %2, align 8
  %4 = getelementptr inbounds %"struct.std::_List_node", ptr %3, i32 0, i32 1
  %5 = call noundef ptr @_ZN9__gnu_cxx16__aligned_membufISt4pairINSt7__cxx1112basic_stringIcSt11char_traitsIcESaIcEEEN5osgeo4proj4util15BaseObjectNNPtrEEE6_M_ptrEv(ptr noundef nonnull align 8 dereferenceable(48) %4) #14
  ret ptr %5
}

; Function Attrs: mustprogress nounwind uwtable
define linkonce_odr hidden void @_ZNSt14_List_iteratorISt4pairINSt7__cxx1112basic_stringIcSt11char_traitsIcESaIcEEEN5osgeo4proj4util15BaseObjectNNPtrEEEC2EPNSt8__detail15_List_node_baseE(ptr noundef nonnull align 8 dereferenceable(8) %0, ptr noundef %1) unnamed_addr #1 comdat align 2 {
  %3 = alloca ptr, align 8
  %4 = alloca ptr, align 8
  store ptr %0, ptr %3, align 8
  store ptr %1, ptr %4, align 8
  %5 = load ptr, ptr %3, align 8
  %6 = getelementptr inbounds %"struct.std::_List_iterator", ptr %5, i32 0, i32 0
  %7 = load ptr, ptr %4, align 8
  store ptr %7, ptr %6, align 8
  ret void
}

; Function Attrs: mustprogress nounwind uwtable
define linkonce_odr hidden noundef ptr @_ZNKSt10unique_ptrIN5osgeo4proj4util11PropertyMap7PrivateESt14default_deleteIS4_EE3getEv(ptr noundef nonnull align 8 dereferenceable(8) %0) #1 comdat align 2 {
  %2 = alloca ptr, align 8
  store ptr %0, ptr %2, align 8
  %3 = load ptr, ptr %2, align 8
  %4 = getelementptr inbounds %"class.std::unique_ptr.26", ptr %3, i32 0, i32 0
  %5 = call noundef ptr @_ZNKSt15__uniq_ptr_implIN5osgeo4proj4util11PropertyMap7PrivateESt14default_deleteIS4_EE6_M_ptrEv(ptr noundef nonnull align 8 dereferenceable(8) %4) #14
  ret ptr %5
}

; Function Attrs: mustprogress nounwind uwtable
define linkonce_odr hidden noundef nonnull align 8 dereferenceable(8) ptr @_ZNSt14_List_iteratorISt4pairINSt7__cxx1112basic_stringIcSt11char_traitsIcESaIcEEEN5osgeo4proj4util15BaseObjectNNPtrEEEppEv(ptr noundef nonnull align 8 dereferenceable(8) %0) #1 comdat align 2 {
  %2 = alloca ptr, align 8
  store ptr %0, ptr %2, align 8
  %3 = load ptr, ptr %2, align 8
  %4 = getelementptr inbounds %"struct.std::_List_iterator", ptr %3, i32 0, i32 0
  %5 = load ptr, ptr %4, align 8
  %6 = getelementptr inbounds %"struct.std::__detail::_List_node_base", ptr %5, i32 0, i32 0
  %7 = load ptr, ptr %6, align 8
  %8 = getelementptr inbounds %"struct.std::_List_iterator", ptr %3, i32 0, i32 0
  store ptr %7, ptr %8, align 8
  ret ptr %3
}

; Function Attrs: mustprogress nounwind uwtable
define linkonce_odr noundef zeroext i1 @_ZSteqIcEN9__gnu_cxx11__enable_ifIXsr9__is_charIT_EE7__valueEbE6__typeERKNSt7__cxx1112basic_stringIS2_St11char_traitsIS2_ESaIS2_EEESC_(ptr noundef nonnull align 8 dereferenceable(32) %0, ptr noundef nonnull align 8 dereferenceable(32) %1) #1 comdat personality ptr @__gxx_personality_v0 {
  %3 = alloca ptr, align 8
  %4 = alloca ptr, align 8
  store ptr %0, ptr %3, align 8
  store ptr %1, ptr %4, align 8
  %5 = load ptr, ptr %3, align 8
  %6 = call noundef i64 @_ZNKSt7__cxx1112basic_stringIcSt11char_traitsIcESaIcEE4sizeEv(ptr noundef nonnull align 8 dereferenceable(32) %5) #14
  %7 = load ptr, ptr %4, align 8
  %8 = call noundef i64 @_ZNKSt7__cxx1112basic_stringIcSt11char_traitsIcESaIcEE4sizeEv(ptr noundef nonnull align 8 dereferenceable(32) %7) #14
  %9 = icmp eq i64 %6, %8
  br i1 %9, label %10, label %21

10:                                               ; preds = %2
  %11 = load ptr, ptr %3, align 8
  %12 = call noundef ptr @_ZNKSt7__cxx1112basic_stringIcSt11char_traitsIcESaIcEE4dataEv(ptr noundef nonnull align 8 dereferenceable(32) %11) #14
  %13 = load ptr, ptr %4, align 8
  %14 = call noundef ptr @_ZNKSt7__cxx1112basic_stringIcSt11char_traitsIcESaIcEE4dataEv(ptr noundef nonnull align 8 dereferenceable(32) %13) #14
  %15 = load ptr, ptr %3, align 8
  %16 = call noundef i64 @_ZNKSt7__cxx1112basic_stringIcSt11char_traitsIcESaIcEE4sizeEv(ptr noundef nonnull align 8 dereferenceable(32) %15) #14
  %17 = invoke noundef i32 @_ZNSt11char_traitsIcE7compareEPKcS2_m(ptr noundef %12, ptr noundef %14, i64 noundef %16)
          to label %18 unwind label %23

18:                                               ; preds = %10
  %19 = icmp ne i32 %17, 0
  %20 = xor i1 %19, true
  br label %21

21:                                               ; preds = %18, %2
  %22 = phi i1 [ false, %2 ], [ %20, %18 ]
  ret i1 %22

23:                                               ; preds = %10
  %24 = landingpad { ptr, i32 }
          catch ptr null
  %25 = extractvalue { ptr, i32 } %24, 0
  call void @__clang_call_terminate(ptr %25) #15
  unreachable
}

; Function Attrs: mustprogress nounwind uwtable
define linkonce_odr hidden noundef nonnull align 8 dereferenceable(48) ptr @_ZNKSt14_List_iteratorISt4pairINSt7__cxx1112basic_stringIcSt11char_traitsIcESaIcEEEN5osgeo4proj4util15BaseObjectNNPtrEEEdeEv(ptr noundef nonnull align 8 dereferenceable(8) %0) #1 comdat align 2 {
  %2 = alloca ptr, align 8
  store ptr %0, ptr %2, align 8
  %3 = load ptr, ptr %2, align 8
  %4 = getelementptr inbounds %"struct.std::_List_iterator", ptr %3, i32 0, i32 0
  %5 = load ptr, ptr %4, align 8
  %6 = call noundef ptr @_ZNSt10_List_nodeISt4pairINSt7__cxx1112basic_stringIcSt11char_traitsIcESaIcEEEN5osgeo4proj4util15BaseObjectNNPtrEEE9_M_valptrEv(ptr noundef nonnull align 8 dereferenceable(64) %5)
  ret ptr %6
}

; Function Attrs: mustprogress nounwind uwtable
define linkonce_odr noundef zeroext i1 @_ZStneRKSt14_List_iteratorISt4pairINSt7__cxx1112basic_stringIcSt11char_traitsIcESaIcEEEN5osgeo4proj4util15BaseObjectNNPtrEEESE_(ptr noundef nonnull align 8 dereferenceable(8) %0, ptr noundef nonnull align 8 dereferenceable(8) %1) #1 comdat {
  %3 = alloca ptr, align 8
  %4 = alloca ptr, align 8
  store ptr %0, ptr %3, align 8
  store ptr %1, ptr %4, align 8
  %5 = load ptr, ptr %3, align 8
  %6 = getelementptr inbounds %"struct.std::_List_iterator", ptr %5, i32 0, i32 0
  %7 = load ptr, ptr %6, align 8
  %8 = load ptr, ptr %4, align 8
  %9 = getelementptr inbounds %"struct.std::_List_iterator", ptr %8, i32 0, i32 0
  %10 = load ptr, ptr %9, align 8
  %11 = icmp ne ptr %7, %10
  ret i1 %11
}

; Function Attrs: mustprogress nounwind uwtable
define linkonce_odr hidden ptr @_ZNSt7__cxx114listISt4pairINS_12basic_stringIcSt11char_traitsIcESaIcEEEN5osgeo4proj4util15BaseObjectNNPtrEESaISB_EE3endEv(ptr noundef nonnull align 8 dereferenceable(24) %0) #1 comdat align 2 {
  %2 = alloca %"struct.std::_List_iterator", align 8
  %3 = alloca ptr, align 8
  store ptr %0, ptr %3, align 8
  %4 = load ptr, ptr %3, align 8
  %5 = getelementptr inbounds %"class.std::__cxx11::_List_base", ptr %4, i32 0, i32 0
  %6 = getelementptr inbounds %"struct.std::__cxx11::_List_base<std::pair<std::__cxx11::basic_string<char>, osgeo::proj::util::BaseObjectNNPtr>, std::allocator<std::pair<std::__cxx11::basic_string<char>, osgeo::proj::util::BaseObjectNNPtr>>>::_List_impl", ptr %5, i32 0, i32 0
  call void @_ZNSt14_List_iteratorISt4pairINSt7__cxx1112basic_stringIcSt11char_traitsIcESaIcEEEN5osgeo4proj4util15BaseObjectNNPtrEEEC2EPNSt8__detail15_List_node_baseE(ptr noundef nonnull align 8 dereferenceable(8) %2, ptr noundef %6) #14
  %7 = getelementptr inbounds %"struct.std::_List_iterator", ptr %2, i32 0, i32 0
  %8 = load ptr, ptr %7, align 8
  ret ptr %8
}

; Function Attrs: mustprogress nounwind uwtable
define linkonce_odr hidden ptr @_ZNSt7__cxx114listISt4pairINS_12basic_stringIcSt11char_traitsIcESaIcEEEN5osgeo4proj4util15BaseObjectNNPtrEESaISB_EE5beginEv(ptr noundef nonnull align 8 dereferenceable(24) %0) #1 comdat align 2 {
  %2 = alloca %"struct.std::_List_iterator", align 8
  %3 = alloca ptr, align 8
  store ptr %0, ptr %3, align 8
  %4 = load ptr, ptr %3, align 8
  %5 = getelementptr inbounds %"class.std::__cxx11::_List_base", ptr %4, i32 0, i32 0
  %6 = getelementptr inbounds %"struct.std::__cxx11::_List_base<std::pair<std::__cxx11::basic_string<char>, osgeo::proj::util::BaseObjectNNPtr>, std::allocator<std::pair<std::__cxx11::basic_string<char>, osgeo::proj::util::BaseObjectNNPtr>>>::_List_impl", ptr %5, i32 0, i32 0
  %7 = getelementptr inbounds %"struct.std::__detail::_List_node_base", ptr %6, i32 0, i32 0
  %8 = load ptr, ptr %7, align 8
  call void @_ZNSt14_List_iteratorISt4pairINSt7__cxx1112basic_stringIcSt11char_traitsIcESaIcEEEN5osgeo4proj4util15BaseObjectNNPtrEEEC2EPNSt8__detail15_List_node_baseE(ptr noundef nonnull align 8 dereferenceable(8) %2, ptr noundef %8) #14
  %9 = getelementptr inbounds %"struct.std::_List_iterator", ptr %2, i32 0, i32 0
  %10 = load ptr, ptr %9, align 8
  ret ptr %10
}

; Function Attrs: mustprogress nounwind uwtable
define linkonce_odr hidden noundef ptr @_ZNKSt10unique_ptrIN5osgeo4proj4util11PropertyMap7PrivateESt14default_deleteIS4_EEptEv(ptr noundef nonnull align 8 dereferenceable(8) %0) #1 comdat align 2 {
  %2 = alloca ptr, align 8
  store ptr %0, ptr %2, align 8
  %3 = load ptr, ptr %2, align 8
  %4 = call noundef ptr @_ZNKSt10unique_ptrIN5osgeo4proj4util11PropertyMap7PrivateESt14default_deleteIS4_EE3getEv(ptr noundef nonnull align 8 dereferenceable(8) %3) #14
  ret ptr %4
}

; Function Attrs: mustprogress nounwind uwtable
define hidden noundef ptr @_ZNK5osgeo4proj4util11PropertyMap3getERKNSt7__cxx1112basic_stringIcSt11char_traitsIcESaIcEEE(ptr noundef nonnull align 8 dereferenceable(8) %0, ptr noundef nonnull align 8 dereferenceable(32) %1) #1 align 2 {
  %3 = alloca ptr, align 8
  %4 = alloca ptr, align 8
  %5 = alloca ptr, align 8
  %6 = alloca ptr, align 8
  %7 = alloca %"struct.std::_List_iterator", align 8
  %8 = alloca %"struct.std::_List_iterator", align 8
  %9 = alloca ptr, align 8
  store ptr %0, ptr %4, align 8
  store ptr %1, ptr %5, align 8
  %10 = load ptr, ptr %4, align 8
  %11 = getelementptr inbounds %"class.osgeo::proj::util::PropertyMap", ptr %10, i32 0, i32 0
  %12 = call noundef ptr @_ZNKSt10unique_ptrIN5osgeo4proj4util11PropertyMap7PrivateESt14default_deleteIS4_EEptEv(ptr noundef nonnull align 8 dereferenceable(8) %11) #14
  %13 = getelementptr inbounds %"struct.osgeo::proj::util::PropertyMap::Private", ptr %12, i32 0, i32 0
  store ptr %13, ptr %6, align 8
  %14 = load ptr, ptr %6, align 8
  %15 = call ptr @_ZNSt7__cxx114listISt4pairINS_12basic_stringIcSt11char_traitsIcESaIcEEEN5osgeo4proj4util15BaseObjectNNPtrEESaISB_EE5beginEv(ptr noundef nonnull align 8 dereferenceable(24) %14) #14
  %16 = getelementptr inbounds %"struct.std::_List_iterator", ptr %7, i32 0, i32 0
  store ptr %15, ptr %16, align 8
  %17 = load ptr, ptr %6, align 8
  %18 = call ptr @_ZNSt7__cxx114listISt4pairINS_12basic_stringIcSt11char_traitsIcESaIcEEEN5osgeo4proj4util15BaseObjectNNPtrEESaISB_EE3endEv(ptr noundef nonnull align 8 dereferenceable(24) %17) #14
  %19 = getelementptr inbounds %"struct.std::_List_iterator", ptr %8, i32 0, i32 0
  store ptr %18, ptr %19, align 8
  br label %20

20:                                               ; preds = %32, %2
  %21 = call noundef zeroext i1 @_ZStneRKSt14_List_iteratorISt4pairINSt7__cxx1112basic_stringIcSt11char_traitsIcESaIcEEEN5osgeo4proj4util15BaseObjectNNPtrEEESE_(ptr noundef nonnull align 8 dereferenceable(8) %7, ptr noundef nonnull align 8 dereferenceable(8) %8) #14
  br i1 %21, label %22, label %34

22:                                               ; preds = %20
  %23 = call noundef nonnull align 8 dereferenceable(48) ptr @_ZNKSt14_List_iteratorISt4pairINSt7__cxx1112basic_stringIcSt11char_traitsIcESaIcEEEN5osgeo4proj4util15BaseObjectNNPtrEEEdeEv(ptr noundef nonnull align 8 dereferenceable(8) %7) #14
  store ptr %23, ptr %9, align 8
  %24 = load ptr, ptr %9, align 8
  %25 = getelementptr inbounds %"struct.std::pair", ptr %24, i32 0, i32 0
  %26 = load ptr, ptr %5, align 8
  %27 = call noundef zeroext i1 @_ZSteqIcEN9__gnu_cxx11__enable_ifIXsr9__is_charIT_EE7__valueEbE6__typeERKNSt7__cxx1112basic_stringIS2_St11char_traitsIS2_ESaIS2_EEESC_(ptr noundef nonnull align 8 dereferenceable(32) %25, ptr noundef nonnull align 8 dereferenceable(32) %26) #14
  br i1 %27, label %28, label %31

28:                                               ; preds = %22
  %29 = load ptr, ptr %9, align 8
  %30 = getelementptr inbounds %"struct.std::pair", ptr %29, i32 0, i32 1
  store ptr %30, ptr %3, align 8
  br label %35

31:                                               ; preds = %22
  br label %32

32:                                               ; preds = %31
  %33 = call noundef nonnull align 8 dereferenceable(8) ptr @_ZNSt14_List_iteratorISt4pairINSt7__cxx1112basic_stringIcSt11char_traitsIcESaIcEEEN5osgeo4proj4util15BaseObjectNNPtrEEEppEv(ptr noundef nonnull align 8 dereferenceable(8) %7) #14
  br label %20

34:                                               ; preds = %20
  store ptr null, ptr %3, align 8
  br label %35

35:                                               ; preds = %34, %28
  %36 = load ptr, ptr %3, align 8
  ret ptr %36
}